target datalayout = "e-m:e-p270:32:32-p271:32:32-p272:64:64-i64:64-i128:128-f80:128-n8:16:32:64-S128"
target triple = "x86_64-pc-linux-gnu"

%struct.DumpState = type { ptr, ptr, ptr, i64, i32, i32, ptr, i64 }
%struct.TValue = type { %union.Value, i8 }
%union.Value = type { ptr }
%struct.TString = type { ptr, i8, i8, i8, i8, i32, %union.anon.4, ptr, ptr, ptr }
%union.anon.4 = type { i64 }

; Function Attrs: nounwind uwtable
define internal void @dumpVarint(ptr noundef %0, i64 noundef %1) #0 {
  %3 = alloca ptr, align 8
  %4 = alloca i64, align 8
  %5 = alloca [10 x i8], align 1
  %6 = alloca i32, align 4
  store ptr %0, ptr %3, align 8, !tbaa !11
  store i64 %1, ptr %4, align 8, !tbaa !48
  call void @llvm.lifetime.start.p0(i64 10, ptr %5) #3
  call void @llvm.lifetime.start.p0(i64 4, ptr %6) #3
  store i32 1, ptr %6, align 4, !tbaa !12
  %7 = load i64, ptr %4, align 8, !tbaa !48
  %8 = and i64 %7, 127
  %9 = trunc i64 %8 to i8
  %10 = getelementptr inbounds nuw [10 x i8], ptr %5, i64 0, i64 9
  store i8 %9, ptr %10, align 1, !tbaa !19
  br label %11

11:                                               ; preds = %15, %2
  %12 = load i64, ptr %4, align 8, !tbaa !48
  %13 = lshr i64 %12, 7
  store i64 %13, ptr %4, align 8, !tbaa !48
  %14 = icmp ne i64 %13, 0
  br i1 %14, label %15, label %25

15:                                               ; preds = %11
  %16 = load i64, ptr %4, align 8, !tbaa !48
  %17 = and i64 %16, 127
  %18 = or i64 %17, 128
  %19 = trunc i64 %18 to i8
  %20 = load i32, ptr %6, align 4, !tbaa !12
  %21 = add i32 %20, 1
  store i32 %21, ptr %6, align 4, !tbaa !12
  %22 = zext i32 %21 to i64
  %23 = sub i64 10, %22
  %24 = getelementptr inbounds nuw [10 x i8], ptr %5, i64 0, i64 %23
  store i8 %19, ptr %24, align 1, !tbaa !19
  br label %11

25:                                               ; preds = %11
  %26 = load ptr, ptr %3, align 8, !tbaa !11
  %27 = getelementptr inbounds [10 x i8], ptr %5, i64 0, i64 0
  %28 = getelementptr inbounds nuw i8, ptr %27, i64 10
  %29 = load i32, ptr %6, align 4, !tbaa !12
  %30 = zext i32 %29 to i64
  %31 = sub i64 0, %30
  %32 = getelementptr inbounds i8, ptr %28, i64 %31
  %33 = load i32, ptr %6, align 4, !tbaa !12
  %34 = zext i32 %33 to i64
  %35 = mul i64 %34, 1
  call void @dumpBlock(ptr noundef %26, ptr noundef %32, i64 noundef %35)
  call void @llvm.lifetime.end.p0(i64 4, ptr %6) #3
  call void @llvm.lifetime.end.p0(i64 10, ptr %5) #3
  ret void
}

; Function Attrs: nounwind uwtable
define internal void @dumpBlock(ptr noundef %0, ptr noundef %1, i64 noundef %2) #0 {
  %4 = alloca ptr, align 8
  %5 = alloca ptr, align 8
  %6 = alloca i64, align 8
  store ptr %0, ptr %4, align 8, !tbaa !11
  store ptr %1, ptr %5, align 8, !tbaa !11
  store i64 %2, ptr %6, align 8, !tbaa !48
  %7 = load ptr, ptr %4, align 8, !tbaa !11
  %8 = getelementptr inbounds nuw %struct.DumpState, ptr %7, i32 0, i32 5
  %9 = load i32, ptr %8, align 4, !tbaa !30
  %10 = icmp eq i32 %9, 0
  br i1 %10, label %11, label %31

11:                                               ; preds = %3
  %12 = load ptr, ptr %4, align 8, !tbaa !11
  %13 = getelementptr inbounds nuw %struct.DumpState, ptr %12, i32 0, i32 1
  %14 = load ptr, ptr %13, align 8, !tbaa !26
  %15 = load ptr, ptr %4, align 8, !tbaa !11
  %16 = getelementptr inbounds nuw %struct.DumpState, ptr %15, i32 0, i32 0
  %17 = load ptr, ptr %16, align 8, !tbaa !25
  %18 = load ptr, ptr %5, align 8, !tbaa !11
  %19 = load i64, ptr %6, align 8, !tbaa !48
  %20 = load ptr, ptr %4, align 8, !tbaa !11
  %21 = getelementptr inbounds nuw %struct.DumpState, ptr %20, i32 0, i32 2
  %22 = load ptr, ptr %21, align 8, !tbaa !28
  %23 = call i32 %14(ptr noundef %17, ptr noundef %18, i64 noundef %19, ptr noundef %22)
  %24 = load ptr, ptr %4, align 8, !tbaa !11
  %25 = getelementptr inbounds nuw %struct.DumpState, ptr %24, i32 0, i32 5
  store i32 %23, ptr %25, align 4, !tbaa !30
  %26 = load i64, ptr %6, align 8, !tbaa !48
  %27 = load ptr, ptr %4, align 8, !tbaa !11
  %28 = getelementptr inbounds nuw %struct.DumpState, ptr %27, i32 0, i32 3
  %29 = load i64, ptr %28, align 8, !tbaa !27
  %30 = add i64 %29, %26
  store i64 %30, ptr %28, align 8, !tbaa !27
  br label %31

31:                                               ; preds = %11, %3
  ret void
}

; Function Attrs: nounwind uwtable
define internal void @dumpSize(ptr noundef %0, i64 noundef %1) #0 {
  %3 = alloca ptr, align 8
  %4 = alloca i64, align 8
  store ptr %0, ptr %3, align 8, !tbaa !11
  store i64 %1, ptr %4, align 8, !tbaa !48
  %5 = load ptr, ptr %3, align 8, !tbaa !11
  %6 = load i64, ptr %4, align 8, !tbaa !48
  call void @dumpVarint(ptr noundef %5, i64 noundef %6)
  ret void
}

; Function Attrs: nounwind uwtable
define internal void @dumpString(ptr noundef %0, ptr noundef %1) #0 {
  %3 = alloca ptr, align 8
  %4 = alloca ptr, align 8
  %5 = alloca %struct.TValue, align 8
  %6 = alloca i32, align 4
  %7 = alloca %struct.TValue, align 8
  %8 = alloca %struct.TValue, align 8
  %9 = alloca i64, align 8
  %10 = alloca ptr, align 8
  %11 = alloca ptr, align 8
  %12 = alloca ptr, align 8
  %13 = alloca ptr, align 8
  store ptr %0, ptr %3, align 8, !tbaa !11
  store ptr %1, ptr %4, align 8, !tbaa !63
  %14 = load ptr, ptr %4, align 8, !tbaa !63
  %15 = icmp eq ptr %14, null
  br i1 %15, label %16, label %18

16:                                               ; preds = %2
  %17 = load ptr, ptr %3, align 8, !tbaa !11
  call void @dumpSize(ptr noundef %17, i64 noundef 0)
  br label %93

18:                                               ; preds = %2
  call void @llvm.lifetime.start.p0(i64 16, ptr %5) #3
  call void @llvm.lifetime.start.p0(i64 4, ptr %6) #3
  %19 = load ptr, ptr %3, align 8, !tbaa !11
  %20 = getelementptr inbounds nuw %struct.DumpState, ptr %19, i32 0, i32 6
  %21 = load ptr, ptr %20, align 8, !tbaa !14
  %22 = load ptr, ptr %4, align 8, !tbaa !63
  %23 = call zeroext i8 @luaH_getstr(ptr noundef %21, ptr noundef %22, ptr noundef %5)
  %24 = zext i8 %23 to i32
  store i32 %24, ptr %6, align 4, !tbaa !12
  %25 = load i32, ptr %6, align 4, !tbaa !12
  %26 = and i32 %25, 15
  %27 = icmp eq i32 %26, 0
  br i1 %27, label %33, label %28

28:                                               ; preds = %18
  %29 = load ptr, ptr %3, align 8, !tbaa !11
  call void @dumpSize(ptr noundef %29, i64 noundef 1)
  %30 = load ptr, ptr %3, align 8, !tbaa !11
  %31 = getelementptr inbounds nuw %struct.TValue, ptr %5, i32 0, i32 0
  %32 = load i64, ptr %31, align 8, !tbaa !19
  call void @dumpSize(ptr noundef %30, i64 noundef %32)
  br label %92

33:                                               ; preds = %18
  call void @llvm.lifetime.start.p0(i64 16, ptr %7) #3
  call void @llvm.lifetime.start.p0(i64 16, ptr %8) #3
  call void @llvm.lifetime.start.p0(i64 8, ptr %9) #3
  call void @llvm.lifetime.start.p0(i64 8, ptr %10) #3
  %34 = load ptr, ptr %4, align 8, !tbaa !63
  %35 = getelementptr inbounds nuw %struct.TString, ptr %34, i32 0, i32 4
  %36 = load i8, ptr %35, align 1, !tbaa !64
  %37 = sext i8 %36 to i32
  %38 = icmp sge i32 %37, 0
  br i1 %38, label %39, label %46

39:                                               ; preds = %33
  %40 = load ptr, ptr %4, align 8, !tbaa !63
  %41 = getelementptr inbounds nuw %struct.TString, ptr %40, i32 0, i32 4
  %42 = load i8, ptr %41, align 1, !tbaa !64
  %43 = sext i8 %42 to i64
  store i64 %43, ptr %9, align 8, !tbaa !48
  %44 = load ptr, ptr %4, align 8, !tbaa !63
  %45 = getelementptr inbounds nuw %struct.TString, ptr %44, i32 0, i32 7
  br label %53

46:                                               ; preds = %33
  %47 = load ptr, ptr %4, align 8, !tbaa !63
  %48 = getelementptr inbounds nuw %struct.TString, ptr %47, i32 0, i32 6
  %49 = load i64, ptr %48, align 8, !tbaa !19
  store i64 %49, ptr %9, align 8, !tbaa !48
  %50 = load ptr, ptr %4, align 8, !tbaa !63
  %51 = getelementptr inbounds nuw %struct.TString, ptr %50, i32 0, i32 7
  %52 = load ptr, ptr %51, align 8, !tbaa !66
  br label %53

53:                                               ; preds = %46, %39
  %54 = phi ptr [ %45, %39 ], [ %52, %46 ]
  store ptr %54, ptr %10, align 8, !tbaa !67
  %55 = load ptr, ptr %3, align 8, !tbaa !11
  %56 = load i64, ptr %9, align 8, !tbaa !48
  %57 = add i64 %56, 2
  call void @dumpSize(ptr noundef %55, i64 noundef %57)
  %58 = load ptr, ptr %3, align 8, !tbaa !11
  %59 = load ptr, ptr %10, align 8, !tbaa !67
  %60 = load i64, ptr %9, align 8, !tbaa !48
  %61 = add i64 %60, 1
  %62 = mul i64 %61, 1
  call void @dumpBlock(ptr noundef %58, ptr noundef %59, i64 noundef %62)
  %63 = load ptr, ptr %3, align 8, !tbaa !11
  %64 = getelementptr inbounds nuw %struct.DumpState, ptr %63, i32 0, i32 7
  %65 = load i64, ptr %64, align 8, !tbaa !31
  %66 = add nsw i64 %65, 1
  store i64 %66, ptr %64, align 8, !tbaa !31
  call void @llvm.lifetime.start.p0(i64 8, ptr %11) #3
  store ptr %7, ptr %11, align 8, !tbaa !20
  call void @llvm.lifetime.start.p0(i64 8, ptr %12) #3
  %67 = load ptr, ptr %4, align 8, !tbaa !63
  store ptr %67, ptr %12, align 8, !tbaa !63
  %68 = load ptr, ptr %12, align 8, !tbaa !63
  %69 = load ptr, ptr %11, align 8, !tbaa !20
  %70 = getelementptr inbounds nuw %struct.TValue, ptr %69, i32 0, i32 0
  store ptr %68, ptr %70, align 8, !tbaa !19
  %71 = load ptr, ptr %12, align 8, !tbaa !63
  %72 = getelementptr inbounds nuw %struct.TString, ptr %71, i32 0, i32 1
  %73 = load i8, ptr %72, align 8, !tbaa !68
  %74 = zext i8 %73 to i32
  %75 = or i32 %74, 64
  %76 = trunc i32 %75 to i8
  %77 = load ptr, ptr %11, align 8, !tbaa !20
  %78 = getelementptr inbounds nuw %struct.TValue, ptr %77, i32 0, i32 1
  store i8 %76, ptr %78, align 8, !tbaa !23
  call void @llvm.lifetime.end.p0(i64 8, ptr %12) #3
  call void @llvm.lifetime.end.p0(i64 8, ptr %11) #3
  call void @llvm.lifetime.start.p0(i64 8, ptr %13) #3
  store ptr %8, ptr %13, align 8, !tbaa !20
  %79 = load ptr, ptr %3, align 8, !tbaa !11
  %80 = getelementptr inbounds nuw %struct.DumpState, ptr %79, i32 0, i32 7
  %81 = load i64, ptr %80, align 8, !tbaa !31
  %82 = load ptr, ptr %13, align 8, !tbaa !20
  %83 = getelementptr inbounds nuw %struct.TValue, ptr %82, i32 0, i32 0
  store i64 %81, ptr %83, align 8, !tbaa !19
  %84 = load ptr, ptr %13, align 8, !tbaa !20
  %85 = getelementptr inbounds nuw %struct.TValue, ptr %84, i32 0, i32 1
  store i8 3, ptr %85, align 8, !tbaa !23
  call void @llvm.lifetime.end.p0(i64 8, ptr %13) #3
  %86 = load ptr, ptr %3, align 8, !tbaa !11
  %87 = getelementptr inbounds nuw %struct.DumpState, ptr %86, i32 0, i32 0
  %88 = load ptr, ptr %87, align 8, !tbaa !25
  %89 = load ptr, ptr %3, align 8, !tbaa !11
  %90 = getelementptr inbounds nuw %struct.DumpState, ptr %89, i32 0, i32 6
  %91 = load ptr, ptr %90, align 8, !tbaa !14
  call void @luaH_set(ptr noundef %88, ptr noundef %91, ptr noundef %7, ptr noundef %8)
  call void @llvm.lifetime.end.p0(i64 8, ptr %10) #3
  call void @llvm.lifetime.end.p0(i64 8, ptr %9) #3
  call void @llvm.lifetime.end.p0(i64 16, ptr %8) #3
  call void @llvm.lifetime.end.p0(i64 16, ptr %7) #3
  br label %92

92:                                               ; preds = %53, %28
  call void @llvm.lifetime.end.p0(i64 4, ptr %6) #3
  call void @llvm.lifetime.end.p0(i64 16, ptr %5) #3
  br label %93

93:                                               ; preds = %92, %16
  ret void
}