; Function Attrs: nounwind uwtable
define internal fastcc void @dumpString(ptr noundef nonnull captures(none) %0, ptr noundef %1) unnamed_addr #0 {
  %3 = alloca [10 x i8], align 1
  %4 = alloca [10 x i8], align 1
  %5 = alloca [10 x i8], align 1
  %6 = alloca [10 x i8], align 1
  %7 = alloca %struct.TValue, align 8
  %8 = alloca %struct.TValue, align 8
  %9 = alloca %struct.TValue, align 8
  %10 = icmp eq ptr %1, null
  br i1 %10, label %11, label %26

11:                                               ; preds = %2
  call void @llvm.lifetime.start.p0(i64 10, ptr nonnull %6) #3
  %12 = getelementptr inbounds nuw i8, ptr %6, i64 9
  store i8 0, ptr %12, align 1, !tbaa !14
  %13 = getelementptr inbounds nuw i8, ptr %0, i64 36
  %14 = load i32, ptr %13, align 4, !tbaa !22
  %15 = icmp eq i32 %14, 0
  br i1 %15, label %16, label %dumpSize.exit

16:                                               ; preds = %11
  %17 = getelementptr inbounds nuw i8, ptr %0, i64 8
  %18 = load ptr, ptr %17, align 8, !tbaa !18
  %19 = load ptr, ptr %0, align 8, !tbaa !17
  %20 = getelementptr inbounds nuw i8, ptr %0, i64 16
  %21 = load ptr, ptr %20, align 8, !tbaa !19
  %22 = call i32 %18(ptr noundef %19, ptr noundef nonnull %12, i64 noundef 1, ptr noundef %21) #3
  store i32 %22, ptr %13, align 4, !tbaa !22
  %23 = getelementptr inbounds nuw i8, ptr %0, i64 24
  %24 = load i64, ptr %23, align 8, !tbaa !23
  %25 = add i64 %24, 1
  store i64 %25, ptr %23, align 8, !tbaa !23
  br label %dumpSize.exit

dumpSize.exit:                                    ; preds = %11, %16
  call void @llvm.lifetime.end.p0(i64 10, ptr nonnull %6) #3
  br label %131

26:                                               ; preds = %2
  call void @llvm.lifetime.start.p0(i64 16, ptr nonnull %7) #3
  %27 = getelementptr inbounds nuw i8, ptr %0, i64 40
  %28 = load ptr, ptr %27, align 8, !tbaa !4
  %29 = call zeroext i8 @luaH_getstr(ptr noundef %28, ptr noundef nonnull %1, ptr noundef nonnull %7) #3
  %30 = and i8 %29, 15
  %31 = icmp eq i8 %30, 0
  br i1 %31, label %72, label %32

32:                                               ; preds = %26
  call void @llvm.lifetime.start.p0(i64 10, ptr nonnull %5) #3
  %33 = getelementptr inbounds nuw i8, ptr %5, i64 9
  store i8 1, ptr %33, align 1, !tbaa !14
  %34 = getelementptr inbounds nuw i8, ptr %0, i64 36
  %35 = load i32, ptr %34, align 4, !tbaa !22
  %36 = icmp eq i32 %35, 0
  br i1 %36, label %37, label %dumpSize.exit28

37:                                               ; preds = %32
  %38 = getelementptr inbounds nuw i8, ptr %0, i64 8
  %39 = load ptr, ptr %38, align 8, !tbaa !18
  %40 = load ptr, ptr %0, align 8, !tbaa !17
  %41 = getelementptr inbounds nuw i8, ptr %0, i64 16
  %42 = load ptr, ptr %41, align 8, !tbaa !19
  %43 = call i32 %39(ptr noundef %40, ptr noundef nonnull %33, i64 noundef 1, ptr noundef %42) #3
  store i32 %43, ptr %34, align 4, !tbaa !22
  %44 = getelementptr inbounds nuw i8, ptr %0, i64 24
  %45 = load i64, ptr %44, align 8, !tbaa !23
  %46 = add i64 %45, 1
  store i64 %46, ptr %44, align 8, !tbaa !23
  %47 = icmp eq i32 %43, 0
  br label %dumpSize.exit28

dumpSize.exit28:                                  ; preds = %32, %37
  %48 = phi i1 [ false, %32 ], [ %47, %37 ]
  call void @llvm.lifetime.end.p0(i64 10, ptr nonnull %5) #3
  %49 = load i64, ptr %7, align 8, !tbaa !14
  call void @llvm.lifetime.start.p0(i64 10, ptr nonnull %4) #3
  %50 = trunc i64 %49 to i8
  %51 = and i8 %50, 127
  %52 = getelementptr inbounds nuw i8, ptr %4, i64 9
  store i8 %51, ptr %52, align 1, !tbaa !14
  %.not8.i.i = icmp ult i64 %49, 128
  br i1 %.not8.i.i, label %._crit_edge.i.i, label %.lr.ph.i.i

.lr.ph.i.i:                                       ; preds = %dumpSize.exit28, %.lr.ph.i.i
  %indvars.iv.i.i = phi i64 [ %indvars.iv.next.i.i, %.lr.ph.i.i ], [ 1, %dumpSize.exit28 ]
  %.069.i.i = phi i64 [ %53, %.lr.ph.i.i ], [ %49, %dumpSize.exit28 ]
  %53 = lshr i64 %.069.i.i, 7
  %54 = trunc i64 %53 to i8
  %55 = or i8 %54, -128
  %indvars.iv.next.i.i = add nuw nsw i64 %indvars.iv.i.i, 1
  %56 = sub nsw i64 9, %indvars.iv.i.i
  %57 = getelementptr inbounds nuw [10 x i8], ptr %4, i64 0, i64 %56
  store i8 %55, ptr %57, align 1, !tbaa !14
  %.not.i.i = icmp ult i64 %.069.i.i, 16384
  br i1 %.not.i.i, label %._crit_edge.loopexit.i.i, label %.lr.ph.i.i

._crit_edge.loopexit.i.i:                         ; preds = %.lr.ph.i.i
  %58 = and i64 %indvars.iv.next.i.i, 4294967295
  br label %._crit_edge.i.i

._crit_edge.i.i:                                  ; preds = %._crit_edge.loopexit.i.i, %dumpSize.exit28
  %.0.lcssa.i.i = phi i64 [ 1, %dumpSize.exit28 ], [ %58, %._crit_edge.loopexit.i.i ]
  br i1 %48, label %59, label %dumpSize.exit29

59:                                               ; preds = %._crit_edge.i.i
  %60 = getelementptr inbounds nuw i8, ptr %4, i64 10
  %61 = sub nsw i64 0, %.0.lcssa.i.i
  %62 = getelementptr inbounds i8, ptr %60, i64 %61
  %63 = getelementptr inbounds nuw i8, ptr %0, i64 8
  %64 = load ptr, ptr %63, align 8, !tbaa !18
  %65 = load ptr, ptr %0, align 8, !tbaa !17
  %66 = getelementptr inbounds nuw i8, ptr %0, i64 16
  %67 = load ptr, ptr %66, align 8, !tbaa !19
  %68 = call i32 %64(ptr noundef %65, ptr noundef nonnull %62, i64 noundef %.0.lcssa.i.i, ptr noundef %67) #3
  store i32 %68, ptr %34, align 4, !tbaa !22
  %69 = getelementptr inbounds nuw i8, ptr %0, i64 24
  %70 = load i64, ptr %69, align 8, !tbaa !23
  %71 = add i64 %70, %.0.lcssa.i.i
  store i64 %71, ptr %69, align 8, !tbaa !23
  br label %dumpSize.exit29

dumpSize.exit29:                                  ; preds = %._crit_edge.i.i, %59
  call void @llvm.lifetime.end.p0(i64 10, ptr nonnull %4) #3
  br label %130

72:                                               ; preds = %26
  call void @llvm.lifetime.start.p0(i64 16, ptr nonnull %8) #3
  call void @llvm.lifetime.start.p0(i64 16, ptr nonnull %9) #3
  %73 = getelementptr inbounds nuw i8, ptr %1, i64 11
  %74 = load i8, ptr %73, align 1, !tbaa !68
  %75 = icmp sgt i8 %74, -1
  br i1 %75, label %76, label %79

76:                                               ; preds = %72
  %77 = zext nneg i8 %74 to i64
  %78 = getelementptr inbounds nuw i8, ptr %1, i64 24
  br label %84

79:                                               ; preds = %72
  %80 = getelementptr inbounds nuw i8, ptr %1, i64 16
  %81 = load i64, ptr %80, align 8, !tbaa !14
  %82 = getelementptr inbounds nuw i8, ptr %1, i64 24
  %83 = load ptr, ptr %82, align 8, !tbaa !70
  br label %84

84:                                               ; preds = %79, %76
  %.0 = phi i64 [ %77, %76 ], [ %81, %79 ]
  %85 = phi ptr [ %78, %76 ], [ %83, %79 ]
  %86 = add i64 %.0, 2
  call void @llvm.lifetime.start.p0(i64 10, ptr nonnull %3) #3
  %87 = trunc i64 %86 to i8
  %88 = and i8 %87, 127
  %89 = getelementptr inbounds nuw i8, ptr %3, i64 9
  store i8 %88, ptr %89, align 1, !tbaa !14
  %.not8.i.i30 = icmp ult i64 %86, 128
  br i1 %.not8.i.i30, label %._crit_edge.i.i37, label %.lr.ph.i.i31

.lr.ph.i.i31:                                     ; preds = %84, %.lr.ph.i.i31
  %indvars.iv.i.i32 = phi i64 [ %indvars.iv.next.i.i34, %.lr.ph.i.i31 ], [ 1, %84 ]
  %.069.i.i33 = phi i64 [ %90, %.lr.ph.i.i31 ], [ %86, %84 ]
  %90 = lshr i64 %.069.i.i33, 7
  %91 = trunc i64 %90 to i8
  %92 = or i8 %91, -128
  %indvars.iv.next.i.i34 = add nuw nsw i64 %indvars.iv.i.i32, 1
  %93 = sub nsw i64 9, %indvars.iv.i.i32
  %94 = getelementptr inbounds nuw [10 x i8], ptr %3, i64 0, i64 %93
  store i8 %92, ptr %94, align 1, !tbaa !14
  %.not.i.i35 = icmp ult i64 %.069.i.i33, 16384
  br i1 %.not.i.i35, label %._crit_edge.loopexit.i.i36, label %.lr.ph.i.i31

._crit_edge.loopexit.i.i36:                       ; preds = %.lr.ph.i.i31
  %95 = and i64 %indvars.iv.next.i.i34, 4294967295
  br label %._crit_edge.i.i37

._crit_edge.i.i37:                                ; preds = %._crit_edge.loopexit.i.i36, %84
  %.0.lcssa.i.i38 = phi i64 [ 1, %84 ], [ %95, %._crit_edge.loopexit.i.i36 ]
  %96 = getelementptr inbounds nuw i8, ptr %0, i64 36
  %97 = load i32, ptr %96, align 4, !tbaa !22
  %98 = icmp eq i32 %97, 0
  br i1 %98, label %dumpSize.exit39, label %dumpSize.exit39.thread

dumpSize.exit39.thread:                           ; preds = %._crit_edge.i.i37
  call void @llvm.lifetime.end.p0(i64 10, ptr nonnull %3) #3
  br label %dumpBlock.exit

dumpSize.exit39:                                  ; preds = %._crit_edge.i.i37
  %99 = getelementptr inbounds nuw i8, ptr %3, i64 10
  %100 = sub nsw i64 0, %.0.lcssa.i.i38
  %101 = getelementptr inbounds i8, ptr %99, i64 %100
  %102 = getelementptr inbounds nuw i8, ptr %0, i64 8
  %103 = load ptr, ptr %102, align 8, !tbaa !18
  %104 = load ptr, ptr %0, align 8, !tbaa !17
  %105 = getelementptr inbounds nuw i8, ptr %0, i64 16
  %106 = load ptr, ptr %105, align 8, !tbaa !19
  %107 = call i32 %103(ptr noundef %104, ptr noundef nonnull %101, i64 noundef %.0.lcssa.i.i38, ptr noundef %106) #3
  store i32 %107, ptr %96, align 4, !tbaa !22
  %108 = getelementptr inbounds nuw i8, ptr %0, i64 24
  %109 = load i64, ptr %108, align 8, !tbaa !23
  %110 = add i64 %109, %.0.lcssa.i.i38
  store i64 %110, ptr %108, align 8, !tbaa !23
  call void @llvm.lifetime.end.p0(i64 10, ptr nonnull %3) #3
  %111 = icmp eq i32 %107, 0
  br i1 %111, label %112, label %dumpBlock.exit

112:                                              ; preds = %dumpSize.exit39
  %113 = add i64 %.0, 1
  %114 = load ptr, ptr %102, align 8, !tbaa !18
  %115 = load ptr, ptr %0, align 8, !tbaa !17
  %116 = load ptr, ptr %105, align 8, !tbaa !19
  %117 = call i32 %114(ptr noundef %115, ptr noundef %85, i64 noundef %113, ptr noundef %116) #3
  store i32 %117, ptr %96, align 4, !tbaa !22
  %118 = load i64, ptr %108, align 8, !tbaa !23
  %119 = add i64 %118, %113
  store i64 %119, ptr %108, align 8, !tbaa !23
  br label %dumpBlock.exit

dumpBlock.exit:                                   ; preds = %dumpSize.exit39.thread, %dumpSize.exit39, %112
  %120 = getelementptr inbounds nuw i8, ptr %0, i64 48
  %121 = load i64, ptr %120, align 8, !tbaa !21
  %122 = add nsw i64 %121, 1
  store i64 %122, ptr %120, align 8, !tbaa !21
  store ptr %1, ptr %8, align 8, !tbaa !14
  %123 = getelementptr inbounds nuw i8, ptr %1, i64 8
  %124 = load i8, ptr %123, align 8, !tbaa !71
  %125 = or i8 %124, 64
  %126 = getelementptr inbounds nuw i8, ptr %8, i64 8
  store i8 %125, ptr %126, align 8, !tbaa !15
  store i64 %122, ptr %9, align 8, !tbaa !14
  %127 = getelementptr inbounds nuw i8, ptr %9, i64 8
  store i8 3, ptr %127, align 8, !tbaa !15
  %128 = load ptr, ptr %0, align 8, !tbaa !17
  %129 = load ptr, ptr %27, align 8, !tbaa !4
  call void @luaH_set(ptr noundef %128, ptr noundef %129, ptr noundef nonnull %8, ptr noundef nonnull %9) #3
  call void @llvm.lifetime.end.p0(i64 16, ptr nonnull %9) #3
  call void @llvm.lifetime.end.p0(i64 16, ptr nonnull %8) #3
  br label %130

130:                                              ; preds = %dumpBlock.exit, %dumpSize.exit29
  call void @llvm.lifetime.end.p0(i64 16, ptr nonnull %7) #3
  br label %131

131:                                              ; preds = %130, %dumpSize.exit
  ret void
}